target datalayout = "e-m:e-p270:32:32-p271:32:32-p272:64:64-i64:64-i128:128-f80:128-n8:16:32:64-S128"
target triple = "x86_64-pc-linux-gnu"

%struct.z_stream_s = type { ptr, i32, i64, ptr, i32, i64, ptr, ptr, ptr, ptr, ptr, i32, i64, i64 }
%struct.internal_state = type { ptr, i32, ptr, i64, ptr, i32, i32, ptr, i32, i8, i32, i32, i32, i32, ptr, i64, ptr, ptr, i32, i32, i32, i32, i32, i64, i32, i32, i32, i32, i32, i32, i32, i32, i32, i32, i32, i32, i32, [573 x %struct.ct_data_s], [61 x %struct.ct_data_s], [39 x %struct.ct_data_s], %struct.tree_desc_s, %struct.tree_desc_s, %struct.tree_desc_s, [16 x i16], [573 x i32], i32, i32, [573 x i8], ptr, i32, i32, ptr, i64, i64, i32, i32, i16, i32, i64 }
%struct.ct_data_s = type { %union.anon, %union.anon.0 }
%union.anon = type { i16 }
%union.anon.0 = type { i16 }
%struct.tree_desc_s = type { ptr, i32, ptr }
%struct.gz_header_s = type { i32, i64, i32, i32, ptr, i32, i32, ptr, i32, ptr, i32, i32, i32 }

; Function Attrs: nounwind uwtable
define i64 @deflateBound(ptr noundef %0, i64 noundef %1) #0 {
  %3 = alloca i64, align 8
  %4 = alloca ptr, align 8
  %5 = alloca i64, align 8
  %6 = alloca ptr, align 8
  %7 = alloca i64, align 8
  %8 = alloca i64, align 8
  %9 = alloca ptr, align 8
  %10 = alloca i32, align 4
  store ptr %0, ptr %4, align 8, !tbaa !3
  store i64 %1, ptr %5, align 8, !tbaa !74
  call void @llvm.lifetime.start.p0(i64 8, ptr %6) #5
  call void @llvm.lifetime.start.p0(i64 8, ptr %7) #5
  call void @llvm.lifetime.start.p0(i64 8, ptr %8) #5
  call void @llvm.lifetime.start.p0(i64 8, ptr %9) #5
  %11 = load i64, ptr %5, align 8, !tbaa !74
  %12 = load i64, ptr %5, align 8, !tbaa !74
  %13 = add i64 %12, 7
  %14 = lshr i64 %13, 3
  %15 = add i64 %11, %14
  %16 = load i64, ptr %5, align 8, !tbaa !74
  %17 = add i64 %16, 63
  %18 = lshr i64 %17, 6
  %19 = add i64 %15, %18
  %20 = add i64 %19, 5
  store i64 %20, ptr %7, align 8, !tbaa !74
  %21 = load ptr, ptr %4, align 8, !tbaa !3
  %22 = icmp eq ptr %21, null
  br i1 %22, label %28, label %23

23:                                               ; preds = %2
  %24 = load ptr, ptr %4, align 8, !tbaa !3
  %25 = getelementptr inbounds nuw %struct.z_stream_s, ptr %24, i32 0, i32 7
  %26 = load ptr, ptr %25, align 8, !tbaa !21
  %27 = icmp eq ptr %26, null
  br i1 %27, label %28, label %31

28:                                               ; preds = %23, %2
  %29 = load i64, ptr %7, align 8, !tbaa !74
  %30 = add i64 %29, 6
  store i64 %30, ptr %3, align 8
  store i32 1, ptr %10, align 4
  br label %147

31:                                               ; preds = %23
  %32 = load ptr, ptr %4, align 8, !tbaa !3
  %33 = getelementptr inbounds nuw %struct.z_stream_s, ptr %32, i32 0, i32 7
  %34 = load ptr, ptr %33, align 8, !tbaa !21
  store ptr %34, ptr %6, align 8, !tbaa !20
  %35 = load ptr, ptr %6, align 8, !tbaa !20
  %36 = getelementptr inbounds nuw %struct.internal_state, ptr %35, i32 0, i32 6
  %37 = load i32, ptr %36, align 4, !tbaa !30
  switch i32 %37, label %117 [
    i32 0, label %38
    i32 1, label %39
    i32 2, label %47
  ]

38:                                               ; preds = %31
  store i64 0, ptr %8, align 8, !tbaa !74
  br label %118

39:                                               ; preds = %31
  %40 = load ptr, ptr %6, align 8, !tbaa !20
  %41 = getelementptr inbounds nuw %struct.internal_state, ptr %40, i32 0, i32 27
  %42 = load i32, ptr %41, align 4, !tbaa !56
  %43 = icmp ne i32 %42, 0
  %44 = select i1 %43, i32 4, i32 0
  %45 = add nsw i32 6, %44
  %46 = sext i32 %45 to i64
  store i64 %46, ptr %8, align 8, !tbaa !74
  br label %118

47:                                               ; preds = %31
  store i64 18, ptr %8, align 8, !tbaa !74
  %48 = load ptr, ptr %6, align 8, !tbaa !20
  %49 = getelementptr inbounds nuw %struct.internal_state, ptr %48, i32 0, i32 7
  %50 = load ptr, ptr %49, align 8, !tbaa !31
  %51 = icmp ne ptr %50, null
  br i1 %51, label %52, label %116

52:                                               ; preds = %47
  %53 = load ptr, ptr %6, align 8, !tbaa !20
  %54 = getelementptr inbounds nuw %struct.internal_state, ptr %53, i32 0, i32 7
  %55 = load ptr, ptr %54, align 8, !tbaa !31
  %56 = getelementptr inbounds nuw %struct.gz_header_s, ptr %55, i32 0, i32 4
  %57 = load ptr, ptr %56, align 8, !tbaa !103
  %58 = icmp ne ptr %57, null
  br i1 %58, label %59, label %69

59:                                               ; preds = %52
  %60 = load ptr, ptr %6, align 8, !tbaa !20
  %61 = getelementptr inbounds nuw %struct.internal_state, ptr %60, i32 0, i32 7
  %62 = load ptr, ptr %61, align 8, !tbaa !31
  %63 = getelementptr inbounds nuw %struct.gz_header_s, ptr %62, i32 0, i32 5
  %64 = load i32, ptr %63, align 8, !tbaa !108
  %65 = add i32 2, %64
  %66 = zext i32 %65 to i64
  %67 = load i64, ptr %8, align 8, !tbaa !74
  %68 = add i64 %67, %66
  store i64 %68, ptr %8, align 8, !tbaa !74
  br label %69

69:                                               ; preds = %59, %52
  %70 = load ptr, ptr %6, align 8, !tbaa !20
  %71 = getelementptr inbounds nuw %struct.internal_state, ptr %70, i32 0, i32 7
  %72 = load ptr, ptr %71, align 8, !tbaa !31
  %73 = getelementptr inbounds nuw %struct.gz_header_s, ptr %72, i32 0, i32 7
  %74 = load ptr, ptr %73, align 8, !tbaa !104
  store ptr %74, ptr %9, align 8, !tbaa !10
  %75 = load ptr, ptr %9, align 8, !tbaa !10
  %76 = icmp ne ptr %75, null
  br i1 %76, label %77, label %87

77:                                               ; preds = %69
  br label %78

78:                                               ; preds = %81, %77
  %79 = load i64, ptr %8, align 8, !tbaa !74
  %80 = add i64 %79, 1
  store i64 %80, ptr %8, align 8, !tbaa !74
  br label %81

81:                                               ; preds = %78
  %82 = load ptr, ptr %9, align 8, !tbaa !10
  %83 = getelementptr inbounds nuw i8, ptr %82, i32 1
  store ptr %83, ptr %9, align 8, !tbaa !10
  %84 = load i8, ptr %82, align 1, !tbaa !12
  %85 = icmp ne i8 %84, 0
  br i1 %85, label %78, label %86, !llvm.loop !113

86:                                               ; preds = %81
  br label %87

87:                                               ; preds = %86, %69
  %88 = load ptr, ptr %6, align 8, !tbaa !20
  %89 = getelementptr inbounds nuw %struct.internal_state, ptr %88, i32 0, i32 7
  %90 = load ptr, ptr %89, align 8, !tbaa !31
  %91 = getelementptr inbounds nuw %struct.gz_header_s, ptr %90, i32 0, i32 9
  %92 = load ptr, ptr %91, align 8, !tbaa !105
  store ptr %92, ptr %9, align 8, !tbaa !10
  %93 = load ptr, ptr %9, align 8, !tbaa !10
  %94 = icmp ne ptr %93, null
  br i1 %94, label %95, label %105

95:                                               ; preds = %87
  br label %96

96:                                               ; preds = %99, %95
  %97 = load i64, ptr %8, align 8, !tbaa !74
  %98 = add i64 %97, 1
  store i64 %98, ptr %8, align 8, !tbaa !74
  br label %99

99:                                               ; preds = %96
  %100 = load ptr, ptr %9, align 8, !tbaa !10
  %101 = getelementptr inbounds nuw i8, ptr %100, i32 1
  store ptr %101, ptr %9, align 8, !tbaa !10
  %102 = load i8, ptr %100, align 1, !tbaa !12
  %103 = icmp ne i8 %102, 0
  br i1 %103, label %96, label %104, !llvm.loop !114

104:                                              ; preds = %99
  br label %105

105:                                              ; preds = %104, %87
  %106 = load ptr, ptr %6, align 8, !tbaa !20
  %107 = getelementptr inbounds nuw %struct.internal_state, ptr %106, i32 0, i32 7
  %108 = load ptr, ptr %107, align 8, !tbaa !31
  %109 = getelementptr inbounds nuw %struct.gz_header_s, ptr %108, i32 0, i32 11
  %110 = load i32, ptr %109, align 4, !tbaa !102
  %111 = icmp ne i32 %110, 0
  br i1 %111, label %112, label %115

112:                                              ; preds = %105
  %113 = load i64, ptr %8, align 8, !tbaa !74
  %114 = add i64 %113, 2
  store i64 %114, ptr %8, align 8, !tbaa !74
  br label %115

115:                                              ; preds = %112, %105
  br label %116

116:                                              ; preds = %115, %47
  br label %118

117:                                              ; preds = %31
  store i64 6, ptr %8, align 8, !tbaa !74
  br label %118

118:                                              ; preds = %117, %116, %39, %38
  %119 = load ptr, ptr %6, align 8, !tbaa !20
  %120 = getelementptr inbounds nuw %struct.internal_state, ptr %119, i32 0, i32 12
  %121 = load i32, ptr %120, align 8, !tbaa !32
  %122 = icmp ne i32 %121, 15
  br i1 %122, label %128, label %123

123:                                              ; preds = %118
  %124 = load ptr, ptr %6, align 8, !tbaa !20
  %125 = getelementptr inbounds nuw %struct.internal_state, ptr %124, i32 0, i32 20
  %126 = load i32, ptr %125, align 8, !tbaa !35
  %127 = icmp ne i32 %126, 15
  br i1 %127, label %128, label %132

128:                                              ; preds = %123, %118
  %129 = load i64, ptr %7, align 8, !tbaa !74
  %130 = load i64, ptr %8, align 8, !tbaa !74
  %131 = add i64 %129, %130
  store i64 %131, ptr %3, align 8
  store i32 1, ptr %10, align 4
  br label %147

132:                                              ; preds = %123
  %133 = load i64, ptr %5, align 8, !tbaa !74
  %134 = load i64, ptr %5, align 8, !tbaa !74
  %135 = lshr i64 %134, 12
  %136 = add i64 %133, %135
  %137 = load i64, ptr %5, align 8, !tbaa !74
  %138 = lshr i64 %137, 14
  %139 = add i64 %136, %138
  %140 = load i64, ptr %5, align 8, !tbaa !74
  %141 = lshr i64 %140, 25
  %142 = add i64 %139, %141
  %143 = add i64 %142, 13
  %144 = sub i64 %143, 6
  %145 = load i64, ptr %8, align 8, !tbaa !74
  %146 = add i64 %144, %145
  store i64 %146, ptr %3, align 8
  store i32 1, ptr %10, align 4
  br label %147

147:                                              ; preds = %132, %128, %28
  call void @llvm.lifetime.end.p0(i64 8, ptr %9) #5
  call void @llvm.lifetime.end.p0(i64 8, ptr %8) #5
  call void @llvm.lifetime.end.p0(i64 8, ptr %7) #5
  call void @llvm.lifetime.end.p0(i64 8, ptr %6) #5
  %148 = load i64, ptr %3, align 8
  ret i64 %148
}