; Function Attrs: nofree norecurse nosync nounwind memory(read, inaccessiblemem: none) uwtable
define i64 @deflateBound(ptr noundef readonly %0, i64 noundef %1) local_unnamed_addr #6 {
  %3 = add i64 %1, 7
  %4 = lshr i64 %3, 3
  %5 = add i64 %4, %1
  %6 = add i64 %1, 63
  %7 = lshr i64 %6, 6
  %8 = add i64 %5, %7
  %9 = add i64 %8, 5
  %10 = icmp eq ptr %0, null
  br i1 %10, label %15, label %11

11:                                               ; preds = %2
  %12 = getelementptr inbounds nuw i8, ptr %0, i64 56
  %13 = load ptr, ptr %12, align 8, !tbaa !16
  %14 = icmp eq ptr %13, null
  br i1 %14, label %15, label %17

15:                                               ; preds = %11, %2
  %16 = add i64 %8, 11
  br label %67

17:                                               ; preds = %11
  %18 = getelementptr inbounds nuw i8, ptr %13, i64 44
  %19 = load i32, ptr %18, align 4, !tbaa !26
  switch i32 %19, label %50 [
    i32 0, label %51
    i32 1, label %20
    i32 2, label %24
  ]

20:                                               ; preds = %17
  %21 = getelementptr inbounds nuw i8, ptr %13, i64 156
  %22 = load i32, ptr %21, align 4, !tbaa !66
  %.not46 = icmp eq i32 %22, 0
  %23 = select i1 %.not46, i64 6, i64 10
  br label %51

24:                                               ; preds = %17
  %25 = getelementptr inbounds nuw i8, ptr %13, i64 48
  %26 = load ptr, ptr %25, align 8, !tbaa !27
  %.not = icmp eq ptr %26, null
  br i1 %.not, label %51, label %27

27:                                               ; preds = %24
  %28 = getelementptr inbounds nuw i8, ptr %26, i64 24
  %29 = load ptr, ptr %28, align 8, !tbaa !94
  %.not40 = icmp eq ptr %29, null
  br i1 %.not40, label %36, label %30

30:                                               ; preds = %27
  %31 = getelementptr inbounds nuw i8, ptr %26, i64 32
  %32 = load i32, ptr %31, align 8, !tbaa !99
  %33 = add i32 %32, 2
  %34 = zext i32 %33 to i64
  %35 = add nuw nsw i64 %34, 18
  br label %36

36:                                               ; preds = %30, %27
  %.133 = phi i64 [ %35, %30 ], [ 18, %27 ]
  %37 = getelementptr inbounds nuw i8, ptr %26, i64 40
  %38 = load ptr, ptr %37, align 8, !tbaa !95
  %.not41 = icmp eq ptr %38, null
  br i1 %.not41, label %.loopexit50, label %.preheader49

.preheader49:                                     ; preds = %36, %.preheader49
  %.3 = phi i64 [ %39, %.preheader49 ], [ %.133, %36 ]
  %.0 = phi ptr [ %40, %.preheader49 ], [ %38, %36 ]
  %39 = add i64 %.3, 1
  %40 = getelementptr inbounds nuw i8, ptr %.0, i64 1
  %41 = load i8, ptr %.0, align 1, !tbaa !3
  %.not42 = icmp eq i8 %41, 0
  br i1 %.not42, label %.loopexit50, label %.preheader49, !llvm.loop !105

.loopexit50:                                      ; preds = %.preheader49, %36
  %.2 = phi i64 [ %.133, %36 ], [ %39, %.preheader49 ]
  %42 = getelementptr inbounds nuw i8, ptr %26, i64 56
  %43 = load ptr, ptr %42, align 8, !tbaa !96
  %.not43 = icmp eq ptr %43, null
  br i1 %.not43, label %.loopexit, label %.preheader

.preheader:                                       ; preds = %.loopexit50, %.preheader
  %.5 = phi i64 [ %44, %.preheader ], [ %.2, %.loopexit50 ]
  %.1 = phi ptr [ %45, %.preheader ], [ %43, %.loopexit50 ]
  %44 = add i64 %.5, 1
  %45 = getelementptr inbounds nuw i8, ptr %.1, i64 1
  %46 = load i8, ptr %.1, align 1, !tbaa !3
  %.not44 = icmp eq i8 %46, 0
  br i1 %.not44, label %.loopexit, label %.preheader, !llvm.loop !106

.loopexit:                                        ; preds = %.preheader, %.loopexit50
  %.4 = phi i64 [ %.2, %.loopexit50 ], [ %44, %.preheader ]
  %47 = getelementptr inbounds nuw i8, ptr %26, i64 68
  %48 = load i32, ptr %47, align 4, !tbaa !93
  %.not45 = icmp eq i32 %48, 0
  %49 = add i64 %.4, 2
  %spec.select = select i1 %.not45, i64 %.4, i64 %49
  br label %51

50:                                               ; preds = %17
  br label %51

51:                                               ; preds = %.loopexit, %17, %24, %50, %20
  %.032 = phi i64 [ 6, %50 ], [ 18, %24 ], [ %23, %20 ], [ 0, %17 ], [ %spec.select, %.loopexit ]
  %52 = getelementptr inbounds nuw i8, ptr %13, i64 72
  %53 = load i32, ptr %52, align 8, !tbaa !28
  %.not47 = icmp eq i32 %53, 15
  br i1 %.not47, label %54, label %57

54:                                               ; preds = %51
  %55 = getelementptr inbounds nuw i8, ptr %13, i64 120
  %56 = load i32, ptr %55, align 8, !tbaa !31
  %.not48 = icmp eq i32 %56, 15
  br i1 %.not48, label %59, label %57

57:                                               ; preds = %54, %51
  %58 = add i64 %9, %.032
  br label %67

59:                                               ; preds = %54
  %60 = lshr i64 %1, 12
  %61 = lshr i64 %1, 14
  %62 = lshr i64 %1, 25
  %63 = add i64 %3, %60
  %64 = add i64 %63, %61
  %65 = add i64 %64, %62
  %66 = add i64 %65, %.032
  br label %67

67:                                               ; preds = %59, %57, %15
  %.034 = phi i64 [ %16, %15 ], [ %58, %57 ], [ %66, %59 ]
  ret i64 %.034
}